; Function Attrs: nounwind uwtable
define i32 @png_get_pixel_aspect_ratio_fixed(ptr noalias noundef readnone %0, ptr noalias noundef readonly %1) local_unnamed_addr #1 {
  %3 = alloca i32, align 4
  %4 = icmp ne ptr %0, null
  %5 = icmp ne ptr %1, null
  %or.cond = and i1 %4, %5
  br i1 %or.cond, label %6, label %21

6:                                                ; preds = %2
  %7 = getelementptr inbounds i8, ptr %1, i64 8
  %8 = load i32, ptr %7, align 8
  %9 = and i32 %8, 128
  %.not = icmp eq i32 %9, 0
  br i1 %.not, label %21, label %10

10:                                               ; preds = %6
  %11 = getelementptr inbounds i8, ptr %1, i64 224
  %12 = load i32, ptr %11, align 8
  %.not13 = icmp eq i32 %12, 0
  br i1 %.not13, label %21, label %13

13:                                               ; preds = %10
  %14 = getelementptr inbounds i8, ptr %1, i64 228
  %15 = load i32, ptr %14, align 4
  %16 = icmp sgt i32 %12, -1
  %17 = icmp sgt i32 %15, 0
  %or.cond17 = and i1 %16, %17
  br i1 %or.cond17, label %18, label %21

18:                                               ; preds = %13
  %19 = call i32 @png_muldiv(ptr noundef nonnull %3, i32 noundef %15, i32 noundef 100000, i32 noundef %12) #10
  %.not15 = icmp eq i32 %19, 0
  %20 = load i32, ptr %3, align 4
  %spec.select = select i1 %.not15, i32 0, i32 %20
  br label %21

21:                                               ; preds = %18, %2, %6, %10, %13
  %.0 = phi i32 [ 0, %13 ], [ 0, %10 ], [ 0, %6 ], [ 0, %2 ], [ %spec.select, %18 ]
  ret i32 %.0
}